target datalayout = "e-m:e-p270:32:32-p271:32:32-p272:64:64-i64:64-i128:128-f80:128-n8:16:32:64-S128"
target triple = "x86_64-pc-linux-gnu"

@.str.4 = private unnamed_addr constant [1 x i8] zeroinitializer, align 1
@.str.21 = private unnamed_addr constant [8 x i8] c"%s (%s)\00", align 1

; Function Attrs: nounwind uwtable
define internal i32 @asn1_print_oid_ctx(ptr noundef %0, ptr noundef %1, ptr noundef %2) #0 {
  %4 = alloca i32, align 4
  %5 = alloca ptr, align 8
  %6 = alloca ptr, align 8
  %7 = alloca ptr, align 8
  %8 = alloca [80 x i8], align 16
  %9 = alloca ptr, align 8
  %10 = alloca i32, align 4
  store ptr %0, ptr %5, align 8, !tbaa !19
  store ptr %1, ptr %6, align 8, !tbaa !80
  store ptr %2, ptr %7, align 8, !tbaa !6
  call void @llvm.lifetime.start.p0(i64 80, ptr %8) #5
  call void @llvm.lifetime.start.p0(i64 8, ptr %9) #5
  %11 = load ptr, ptr %6, align 8, !tbaa !80
  %12 = call i32 @OBJ_obj2nid(ptr noundef %11)
  %13 = call ptr @OBJ_nid2ln(i32 noundef %12)
  store ptr %13, ptr %9, align 8, !tbaa !27
  %14 = load ptr, ptr %9, align 8, !tbaa !27
  %15 = icmp ne ptr %14, null
  br i1 %15, label %17, label %16

16:                                               ; preds = %3
  store ptr @.str.4, ptr %9, align 8, !tbaa !27
  br label %17

17:                                               ; preds = %16, %3
  %18 = getelementptr inbounds [80 x i8], ptr %8, i64 0, i64 0
  %19 = load ptr, ptr %6, align 8, !tbaa !80
  %20 = call i32 @OBJ_obj2txt(ptr noundef %18, i32 noundef 80, ptr noundef %19, i32 noundef 1)
  %21 = load ptr, ptr %5, align 8, !tbaa !19
  %22 = load ptr, ptr %9, align 8, !tbaa !27
  %23 = getelementptr inbounds [80 x i8], ptr %8, i64 0, i64 0
  %24 = call i32 (ptr, ptr, ...) @BIO_printf(ptr noundef %21, ptr noundef @.str.21, ptr noundef %22, ptr noundef %23)
  %25 = icmp sle i32 %24, 0
  br i1 %25, label %26, label %27

26:                                               ; preds = %17
  store i32 0, ptr %4, align 4
  store i32 1, ptr %10, align 4
  br label %28

27:                                               ; preds = %17
  store i32 1, ptr %4, align 4
  store i32 1, ptr %10, align 4
  br label %28

28:                                               ; preds = %27, %26
  call void @llvm.lifetime.end.p0(i64 8, ptr %9) #5
  call void @llvm.lifetime.end.p0(i64 80, ptr %8) #5
  %29 = load i32, ptr %4, align 4
  ret i32 %29
}