; Function Attrs: nounwind uwtable
define internal fastcc range(i32 0, 2) i32 @asn1_print_oid_ctx(ptr noundef %0, ptr noundef %1) unnamed_addr #0 {
  %3 = alloca [80 x i8], align 16
  call void @llvm.lifetime.start.p0(i64 80, ptr nonnull %3) #8
  %4 = tail call i32 @OBJ_obj2nid(ptr noundef %1) #8
  %5 = tail call ptr @OBJ_nid2ln(i32 noundef %4) #8
  %.not = icmp eq ptr %5, null
  %spec.store.select = select i1 %.not, ptr @.str.4, ptr %5
  %6 = call i32 @OBJ_obj2txt(ptr noundef nonnull %3, i32 noundef 80, ptr noundef %1, i32 noundef 1) #8
  %7 = call i32 (ptr, ptr, ...) @BIO_printf(ptr noundef %0, ptr noundef nonnull @.str.21, ptr noundef nonnull %spec.store.select, ptr noundef nonnull %3) #8
  %8 = icmp sgt i32 %7, 0
  %. = zext i1 %8 to i32
  call void @llvm.lifetime.end.p0(i64 80, ptr nonnull %3) #8
  ret i32 %.
}